target datalayout = "e-m:e-p270:32:32-p271:32:32-p272:64:64-i64:64-i128:128-f80:128-n8:16:32:64-S128"
target triple = "x86_64-pc-linux-gnu"

%struct.Aig_Man_t_ = type { ptr, ptr, ptr, ptr, ptr, ptr, ptr, %struct.Aig_Obj_t_, i32, i32, i32, i32, i32, i32, [7 x i32], i32, ptr, i32, ptr, i32, ptr, i32, i32, i32, ptr, i32, i32, i32, i32, i32, ptr, ptr, i32, ptr, ptr, i32, ptr, ptr, i32, i32, i32, ptr, ptr, ptr, ptr, ptr, ptr, ptr, ptr, ptr, ptr, ptr, ptr, ptr, ptr, i32, ptr, ptr, ptr, ptr, i32, i64, i64, i64, ptr, ptr }
%struct.Aig_Obj_t_ = type { %union.anon, ptr, ptr, i64, i32, i32, %union.anon.0 }
%union.anon = type { ptr }
%union.anon.0 = type { ptr }
%struct.Vec_Ptr_t_ = type { i32, i32, ptr }

; Function Attrs: inlinehint nounwind uwtable
define internal ptr @Aig_Regular(ptr noundef %0) #3 {
  %2 = alloca ptr, align 8
  store ptr %0, ptr %2, align 8, !tbaa !28
  %3 = load ptr, ptr %2, align 8, !tbaa !28
  %4 = ptrtoint ptr %3 to i64
  %5 = and i64 %4, -2
  %6 = inttoptr i64 %5 to ptr
  ret ptr %6
}

; Function Attrs: inlinehint nounwind uwtable
define internal ptr @Aig_ObjFanin1(ptr noundef %0) #3 {
  %2 = alloca ptr, align 8
  store ptr %0, ptr %2, align 8, !tbaa !28
  %3 = load ptr, ptr %2, align 8, !tbaa !28
  %4 = getelementptr inbounds nuw %struct.Aig_Obj_t_, ptr %3, i32 0, i32 2
  %5 = load ptr, ptr %4, align 8, !tbaa !64
  %6 = call ptr @Aig_Regular(ptr noundef %5)
  ret ptr %6
}

; Function Attrs: inlinehint nounwind uwtable
define internal ptr @Aig_ObjFanin0(ptr noundef %0) #3 {
  %2 = alloca ptr, align 8
  store ptr %0, ptr %2, align 8, !tbaa !28
  %3 = load ptr, ptr %2, align 8, !tbaa !28
  %4 = getelementptr inbounds nuw %struct.Aig_Obj_t_, ptr %3, i32 0, i32 1
  %5 = load ptr, ptr %4, align 8, !tbaa !40
  %6 = call ptr @Aig_Regular(ptr noundef %5)
  ret ptr %6
}

; Function Attrs: inlinehint nounwind uwtable
define internal i32 @Aig_ObjIsNode(ptr noundef %0) #3 {
  %2 = alloca ptr, align 8
  store ptr %0, ptr %2, align 8, !tbaa !28
  %3 = load ptr, ptr %2, align 8, !tbaa !28
  %4 = getelementptr inbounds nuw %struct.Aig_Obj_t_, ptr %3, i32 0, i32 3
  %5 = load i64, ptr %4, align 8
  %6 = and i64 %5, 7
  %7 = trunc i64 %6 to i32
  %8 = icmp eq i32 %7, 5
  br i1 %8, label %16, label %9

9:                                                ; preds = %1
  %10 = load ptr, ptr %2, align 8, !tbaa !28
  %11 = getelementptr inbounds nuw %struct.Aig_Obj_t_, ptr %10, i32 0, i32 3
  %12 = load i64, ptr %11, align 8
  %13 = and i64 %12, 7
  %14 = trunc i64 %13 to i32
  %15 = icmp eq i32 %14, 6
  br label %16

16:                                               ; preds = %9, %1
  %17 = phi i1 [ true, %1 ], [ %15, %9 ]
  %18 = zext i1 %17 to i32
  ret i32 %18
}

; Function Attrs: inlinehint nounwind uwtable
define internal i32 @Vec_PtrSize(ptr noundef %0) #3 {
  %2 = alloca ptr, align 8
  store ptr %0, ptr %2, align 8, !tbaa !36
  %3 = load ptr, ptr %2, align 8, !tbaa !36
  %4 = getelementptr inbounds nuw %struct.Vec_Ptr_t_, ptr %3, i32 0, i32 1
  %5 = load i32, ptr %4, align 4, !tbaa !57
  ret i32 %5
}

; Function Attrs: inlinehint nounwind uwtable
define internal ptr @Vec_PtrEntry(ptr noundef %0, i32 noundef %1) #3 {
  %3 = alloca ptr, align 8
  %4 = alloca i32, align 4
  store ptr %0, ptr %3, align 8, !tbaa !36
  store i32 %1, ptr %4, align 4, !tbaa !14
  %5 = load ptr, ptr %3, align 8, !tbaa !36
  %6 = getelementptr inbounds nuw %struct.Vec_Ptr_t_, ptr %5, i32 0, i32 2
  %7 = load ptr, ptr %6, align 8, !tbaa !37
  %8 = load i32, ptr %4, align 4, !tbaa !14
  %9 = sext i32 %8 to i64
  %10 = getelementptr inbounds ptr, ptr %7, i64 %9
  %11 = load ptr, ptr %10, align 8, !tbaa !39
  ret ptr %11
}

; Function Attrs: inlinehint nounwind uwtable
define internal i32 @Saig_ManPiNum(ptr noundef %0) #3 {
  %2 = alloca ptr, align 8
  store ptr %0, ptr %2, align 8, !tbaa !3
  %3 = load ptr, ptr %2, align 8, !tbaa !3
  %4 = getelementptr inbounds nuw %struct.Aig_Man_t_, ptr %3, i32 0, i32 9
  %5 = load i32, ptr %4, align 4, !tbaa !34
  ret i32 %5
}

; Function Attrs: inlinehint nounwind uwtable
define internal i32 @Saig_ManRegNum(ptr noundef %0) #3 {
  %2 = alloca ptr, align 8
  store ptr %0, ptr %2, align 8, !tbaa !3
  %3 = load ptr, ptr %2, align 8, !tbaa !3
  %4 = getelementptr inbounds nuw %struct.Aig_Man_t_, ptr %3, i32 0, i32 8
  %5 = load i32, ptr %4, align 8, !tbaa !56
  ret i32 %5
}

; Function Attrs: nounwind uwtable
define void @Saig_ManDemiterMarkPos(ptr noundef %0) #0 {
  %2 = alloca ptr, align 8
  %3 = alloca ptr, align 8
  %4 = alloca i32, align 4
  store ptr %0, ptr %2, align 8, !tbaa !3
  call void @llvm.lifetime.start.p0(i64 8, ptr %3) #10
  call void @llvm.lifetime.start.p0(i64 4, ptr %4) #10
  %5 = load ptr, ptr %2, align 8, !tbaa !3
  call void @Aig_ManCleanMarkAB(ptr noundef %5)
  store i32 0, ptr %4, align 4, !tbaa !14
  br label %6

6:                                                ; preds = %41, %1
  %7 = load i32, ptr %4, align 4, !tbaa !14
  %8 = load ptr, ptr %2, align 8, !tbaa !3
  %9 = call i32 @Saig_ManRegNum(ptr noundef %8)
  %10 = icmp slt i32 %7, %9
  br i1 %10, label %11, label %20

11:                                               ; preds = %6
  %12 = load ptr, ptr %2, align 8, !tbaa !3
  %13 = getelementptr inbounds nuw %struct.Aig_Man_t_, ptr %12, i32 0, i32 2
  %14 = load ptr, ptr %13, align 8, !tbaa !44
  %15 = load i32, ptr %4, align 4, !tbaa !14
  %16 = load ptr, ptr %2, align 8, !tbaa !3
  %17 = call i32 @Saig_ManPiNum(ptr noundef %16)
  %18 = add nsw i32 %15, %17
  %19 = call ptr @Vec_PtrEntry(ptr noundef %14, i32 noundef %18)
  store ptr %19, ptr %3, align 8, !tbaa !28
  br label %20

20:                                               ; preds = %11, %6
  %21 = phi i1 [ false, %6 ], [ true, %11 ]
  br i1 %21, label %22, label %44

22:                                               ; preds = %20
  %23 = load i32, ptr %4, align 4, !tbaa !14
  %24 = load ptr, ptr %2, align 8, !tbaa !3
  %25 = call i32 @Saig_ManRegNum(ptr noundef %24)
  %26 = sdiv i32 %25, 2
  %27 = icmp slt i32 %23, %26
  br i1 %27, label %28, label %34

28:                                               ; preds = %22
  %29 = load ptr, ptr %3, align 8, !tbaa !28
  %30 = getelementptr inbounds nuw %struct.Aig_Obj_t_, ptr %29, i32 0, i32 3
  %31 = load i64, ptr %30, align 8
  %32 = and i64 %31, -17
  %33 = or i64 %32, 16
  store i64 %33, ptr %30, align 8
  br label %40

34:                                               ; preds = %22
  %35 = load ptr, ptr %3, align 8, !tbaa !28
  %36 = getelementptr inbounds nuw %struct.Aig_Obj_t_, ptr %35, i32 0, i32 3
  %37 = load i64, ptr %36, align 8
  %38 = and i64 %37, -33
  %39 = or i64 %38, 32
  store i64 %39, ptr %36, align 8
  br label %40

40:                                               ; preds = %34, %28
  br label %41

41:                                               ; preds = %40
  %42 = load i32, ptr %4, align 4, !tbaa !14
  %43 = add nsw i32 %42, 1
  store i32 %43, ptr %4, align 4, !tbaa !14
  br label %6, !llvm.loop !96

44:                                               ; preds = %20
  store i32 0, ptr %4, align 4, !tbaa !14
  br label %45

45:                                               ; preds = %116, %44
  %46 = load i32, ptr %4, align 4, !tbaa !14
  %47 = load ptr, ptr %2, align 8, !tbaa !3
  %48 = getelementptr inbounds nuw %struct.Aig_Man_t_, ptr %47, i32 0, i32 4
  %49 = load ptr, ptr %48, align 8, !tbaa !49
  %50 = call i32 @Vec_PtrSize(ptr noundef %49)
  %51 = icmp slt i32 %46, %50
  br i1 %51, label %52, label %58

52:                                               ; preds = %45
  %53 = load ptr, ptr %2, align 8, !tbaa !3
  %54 = getelementptr inbounds nuw %struct.Aig_Man_t_, ptr %53, i32 0, i32 4
  %55 = load ptr, ptr %54, align 8, !tbaa !49
  %56 = load i32, ptr %4, align 4, !tbaa !14
  %57 = call ptr @Vec_PtrEntry(ptr noundef %55, i32 noundef %56)
  store ptr %57, ptr %3, align 8, !tbaa !28
  br label %58

58:                                               ; preds = %52, %45
  %59 = phi i1 [ false, %45 ], [ true, %52 ]
  br i1 %59, label %60, label %119

60:                                               ; preds = %58
  %61 = load ptr, ptr %3, align 8, !tbaa !28
  %62 = icmp eq ptr %61, null
  br i1 %62, label %67, label %63

63:                                               ; preds = %60
  %64 = load ptr, ptr %3, align 8, !tbaa !28
  %65 = call i32 @Aig_ObjIsNode(ptr noundef %64)
  %66 = icmp ne i32 %65, 0
  br i1 %66, label %68, label %67

67:                                               ; preds = %63, %60
  br label %115

68:                                               ; preds = %63
  %69 = load ptr, ptr %3, align 8, !tbaa !28
  %70 = call ptr @Aig_ObjFanin0(ptr noundef %69)
  %71 = getelementptr inbounds nuw %struct.Aig_Obj_t_, ptr %70, i32 0, i32 3
  %72 = load i64, ptr %71, align 8
  %73 = lshr i64 %72, 4
  %74 = and i64 %73, 1
  %75 = trunc i64 %74 to i32
  %76 = load ptr, ptr %3, align 8, !tbaa !28
  %77 = call ptr @Aig_ObjFanin1(ptr noundef %76)
  %78 = getelementptr inbounds nuw %struct.Aig_Obj_t_, ptr %77, i32 0, i32 3
  %79 = load i64, ptr %78, align 8
  %80 = lshr i64 %79, 4
  %81 = and i64 %80, 1
  %82 = trunc i64 %81 to i32
  %83 = or i32 %75, %82
  %84 = load ptr, ptr %3, align 8, !tbaa !28
  %85 = getelementptr inbounds nuw %struct.Aig_Obj_t_, ptr %84, i32 0, i32 3
  %86 = zext i32 %83 to i64
  %87 = load i64, ptr %85, align 8
  %88 = and i64 %86, 1
  %89 = shl i64 %88, 4
  %90 = and i64 %87, -17
  %91 = or i64 %90, %89
  store i64 %91, ptr %85, align 8
  %92 = load ptr, ptr %3, align 8, !tbaa !28
  %93 = call ptr @Aig_ObjFanin0(ptr noundef %92)
  %94 = getelementptr inbounds nuw %struct.Aig_Obj_t_, ptr %93, i32 0, i32 3
  %95 = load i64, ptr %94, align 8
  %96 = lshr i64 %95, 5
  %97 = and i64 %96, 1
  %98 = trunc i64 %97 to i32
  %99 = load ptr, ptr %3, align 8, !tbaa !28
  %100 = call ptr @Aig_ObjFanin1(ptr noundef %99)
  %101 = getelementptr inbounds nuw %struct.Aig_Obj_t_, ptr %100, i32 0, i32 3
  %102 = load i64, ptr %101, align 8
  %103 = lshr i64 %102, 5
  %104 = and i64 %103, 1
  %105 = trunc i64 %104 to i32
  %106 = or i32 %98, %105
  %107 = load ptr, ptr %3, align 8, !tbaa !28
  %108 = getelementptr inbounds nuw %struct.Aig_Obj_t_, ptr %107, i32 0, i32 3
  %109 = zext i32 %106 to i64
  %110 = load i64, ptr %108, align 8
  %111 = and i64 %109, 1
  %112 = shl i64 %111, 5
  %113 = and i64 %110, -33
  %114 = or i64 %113, %112
  store i64 %114, ptr %108, align 8
  br label %115

115:                                              ; preds = %68, %67
  br label %116

116:                                              ; preds = %115
  %117 = load i32, ptr %4, align 4, !tbaa !14
  %118 = add nsw i32 %117, 1
  store i32 %118, ptr %4, align 4, !tbaa !14
  br label %45, !llvm.loop !97

119:                                              ; preds = %58
  call void @llvm.lifetime.end.p0(i64 4, ptr %4) #10
  call void @llvm.lifetime.end.p0(i64 8, ptr %3) #10
  ret void
}