; Function Attrs: nounwind uwtable
define void @Saig_ManDemiterMarkPos(ptr noundef %0) local_unnamed_addr #3 {
  tail call void @Aig_ManCleanMarkAB(ptr noundef %0) #18
  %2 = getelementptr i8, ptr %0, i64 104
  %.val3036 = load i32, ptr %2, align 8, !tbaa !41
  %3 = icmp sgt i32 %.val3036, 0
  br i1 %3, label %.lr.ph, label %.critedge.preheader

.lr.ph:                                           ; preds = %1
  %4 = getelementptr inbounds nuw i8, ptr %0, i64 16
  %5 = getelementptr i8, ptr %0, i64 108
  br label %10

.critedge.preheader:                              ; preds = %10, %1
  %6 = getelementptr inbounds nuw i8, ptr %0, i64 32
  %7 = load ptr, ptr %6, align 8, !tbaa !36
  %8 = getelementptr i8, ptr %7, i64 4
  %.val2839 = load i32, ptr %8, align 4, !tbaa !37
  %9 = icmp sgt i32 %.val2839, 0
  br i1 %9, label %.lr.ph41, label %.critedge2

10:                                               ; preds = %.lr.ph, %10
  %.val3038 = phi i32 [ %.val3036, %.lr.ph ], [ %.val30, %10 ]
  %.037 = phi i32 [ 0, %.lr.ph ], [ %22, %10 ]
  %11 = load ptr, ptr %4, align 8, !tbaa !39
  %.val = load i32, ptr %5, align 4, !tbaa !3
  %12 = add nsw i32 %.val, %.037
  %13 = getelementptr i8, ptr %11, i64 8
  %.val27 = load ptr, ptr %13, align 8, !tbaa !28
  %14 = sext i32 %12 to i64
  %15 = getelementptr inbounds ptr, ptr %.val27, i64 %14
  %16 = load ptr, ptr %15, align 8, !tbaa !31
  %17 = sdiv i32 %.val3038, 2
  %18 = icmp slt i32 %.037, %17
  %19 = getelementptr inbounds nuw i8, ptr %16, i64 24
  %20 = load i64, ptr %19, align 8
  %. = select i1 %18, i64 16, i64 32
  %21 = or i64 %20, %.
  store i64 %21, ptr %19, align 8
  %22 = add nuw nsw i32 %.037, 1
  %.val30 = load i32, ptr %2, align 8, !tbaa !41
  %23 = icmp slt i32 %22, %.val30
  br i1 %23, label %10, label %.critedge.preheader, !llvm.loop !86

.lr.ph41:                                         ; preds = %.critedge.preheader, %.critedge
  %24 = phi ptr [ %57, %.critedge ], [ %7, %.critedge.preheader ]
  %indvars.iv = phi i64 [ %indvars.iv.next, %.critedge ], [ 0, %.critedge.preheader ]
  %25 = getelementptr i8, ptr %24, i64 8
  %.val26 = load ptr, ptr %25, align 8, !tbaa !28
  %26 = getelementptr inbounds nuw ptr, ptr %.val26, i64 %indvars.iv
  %27 = load ptr, ptr %26, align 8, !tbaa !31
  %28 = icmp eq ptr %27, null
  br i1 %28, label %.critedge, label %29

29:                                               ; preds = %.lr.ph41
  %30 = getelementptr i8, ptr %27, i64 24
  %.val31 = load i64, ptr %30, align 8
  %31 = trunc i64 %.val31 to i32
  %32 = and i32 %31, 7
  %33 = add nsw i32 %32, -7
  %narrow.i = icmp ult i32 %33, -2
  br i1 %narrow.i, label %.critedge, label %34

34:                                               ; preds = %29
  %35 = getelementptr i8, ptr %27, i64 8
  %.val33 = load ptr, ptr %35, align 8, !tbaa !32
  %36 = ptrtoint ptr %.val33 to i64
  %37 = and i64 %36, -2
  %38 = inttoptr i64 %37 to ptr
  %39 = getelementptr inbounds nuw i8, ptr %38, i64 24
  %40 = load i64, ptr %39, align 8
  %41 = getelementptr i8, ptr %27, i64 16
  %.val35 = load ptr, ptr %41, align 8, !tbaa !45
  %42 = ptrtoint ptr %.val35 to i64
  %43 = and i64 %42, -2
  %44 = inttoptr i64 %43 to ptr
  %45 = getelementptr inbounds nuw i8, ptr %44, i64 24
  %46 = load i64, ptr %45, align 8
  %47 = or i64 %46, %40
  %48 = and i64 %47, 16
  %49 = and i64 %.val31, -17
  %50 = or disjoint i64 %48, %49
  store i64 %50, ptr %30, align 8
  %51 = load i64, ptr %39, align 8
  %52 = load i64, ptr %45, align 8
  %53 = or i64 %52, %51
  %54 = and i64 %53, 32
  %55 = and i64 %50, -33
  %56 = or disjoint i64 %54, %55
  store i64 %56, ptr %30, align 8
  %.pre = load ptr, ptr %6, align 8, !tbaa !36
  br label %.critedge

.critedge:                                        ; preds = %34, %29, %.lr.ph41
  %57 = phi ptr [ %.pre, %34 ], [ %24, %29 ], [ %24, %.lr.ph41 ]
  %indvars.iv.next = add nuw nsw i64 %indvars.iv, 1
  %58 = getelementptr i8, ptr %57, i64 4
  %.val28 = load i32, ptr %58, align 4, !tbaa !37
  %59 = sext i32 %.val28 to i64
  %60 = icmp slt i64 %indvars.iv.next, %59
  br i1 %60, label %.lr.ph41, label %.critedge2, !llvm.loop !87

.critedge2:                                       ; preds = %.critedge, %.critedge.preheader
  ret void
}